; Function Attrs: mustprogress nounwind uwtable
define hidden noundef i64 @_ZNK15TypeMetadataPtr7get_conEv(ptr nocapture noundef nonnull readonly align 8 dereferenceable(56) %0) unnamed_addr #0 align 2 {
  %2 = getelementptr inbounds i8, ptr %0, i64 36
  %3 = load i32, ptr %2, align 4
  %.not = icmp eq i32 %3, 0
  br i1 %.not, label %7, label %4

4:                                                ; preds = %1
  %5 = load ptr, ptr @tty, align 8
  tail call void (ptr, ptr, ...) @_ZN12outputStream8print_crEPKcz(ptr noundef nonnull align 8 dereferenceable(56) %5, ptr noundef nonnull @.str.55) #17
  %6 = load ptr, ptr @g_assert_poison, align 8
  store i8 88, ptr %6, align 1
  tail call void @_Z28report_should_not_reach_herePKci(ptr noundef nonnull @.str.42, i32 noundef 5452) #18
  unreachable

7:                                                ; preds = %1
  %8 = getelementptr inbounds i8, ptr %0, i64 48
  %9 = load ptr, ptr %8, align 8
  %10 = getelementptr inbounds i8, ptr %9, i64 16
  %11 = load ptr, ptr %10, align 8
  %12 = ptrtoint ptr %11 to i64
  ret i64 %12
}